; Function Attrs: mustprogress nofree norecurse nosync nounwind willreturn memory(read, inaccessiblemem: none) uwtable
define hidden noundef zeroext i1 @_ZNK11state_graph7is_seenEj(ptr noundef nonnull readonly align 8 captures(none) dereferenceable(152) %0, i32 noundef %1) local_unnamed_addr #8 align 2 {
  %3 = getelementptr inbounds nuw i8, ptr %0, i64 32
  %4 = lshr i32 %1, 5
  %5 = load ptr, ptr %3, align 8, !tbaa !3
  %6 = icmp eq ptr %5, null
  br i1 %6, label %_ZNK8uint_set8containsEj.exit, label %_ZNK6vectorIjLb0EjE4sizeEv.exit.i

_ZNK6vectorIjLb0EjE4sizeEv.exit.i:                ; preds = %2
  %7 = getelementptr inbounds i8, ptr %5, i64 -4
  %8 = load i32, ptr %7, align 4, !tbaa !9
  %9 = icmp ult i32 %4, %8
  br i1 %9, label %10, label %_ZNK8uint_set8containsEj.exit

10:                                               ; preds = %_ZNK6vectorIjLb0EjE4sizeEv.exit.i
  %11 = zext nneg i32 %4 to i64
  %12 = getelementptr inbounds nuw i32, ptr %5, i64 %11
  %13 = load i32, ptr %12, align 4, !tbaa !9
  %14 = and i32 %1, 31
  %15 = shl nuw i32 1, %14
  %16 = and i32 %13, %15
  %17 = icmp ne i32 %16, 0
  br label %_ZNK8uint_set8containsEj.exit

_ZNK8uint_set8containsEj.exit:                    ; preds = %2, %_ZNK6vectorIjLb0EjE4sizeEv.exit.i, %10
  %18 = phi i1 [ false, %_ZNK6vectorIjLb0EjE4sizeEv.exit.i ], [ %17, %10 ], [ false, %2 ]
  ret i1 %18
}